target datalayout = "e-m:e-p270:32:32-p271:32:32-p272:64:64-i64:64-i128:128-f80:128-n8:16:32:64-S128"
target triple = "x86_64-unknown-linux-gnu"

%struct.uv_buf_t = type { ptr, i64 }
%"class.node::quic::SessionTicket::AppData" = type { i8, ptr }

; Function Attrs: mustprogress nounwind uwtable
define dso_local noundef zeroext i1 @_ZN4node4quic13SessionTicket7AppData3SetERK8uv_buf_t(ptr noundef nonnull align 8 dereferenceable(16) %this, ptr noundef nonnull align 8 dereferenceable(16) %data) #4 align 2 {
entry:
  %retval = alloca i1, align 1
  %this.addr = alloca ptr, align 8
  %data.addr = alloca ptr, align 8
  store ptr %this, ptr %this.addr, align 8
  store ptr %data, ptr %data.addr, align 8
  %this1 = load ptr, ptr %this.addr, align 8
  %set_ = getelementptr inbounds %"class.node::quic::SessionTicket::AppData", ptr %this1, i32 0, i32 0
  %0 = load i8, ptr %set_, align 8
  %tobool = trunc i8 %0 to i1
  br i1 %tobool, label %if.then, label %lor.lhs.false

lor.lhs.false:                                    ; preds = %entry
  %1 = load ptr, ptr %data.addr, align 8
  %base = getelementptr inbounds %struct.uv_buf_t, ptr %1, i32 0, i32 0
  %2 = load ptr, ptr %base, align 8
  %cmp = icmp eq ptr %2, null
  br i1 %cmp, label %if.then, label %lor.lhs.false2

lor.lhs.false2:                                   ; preds = %lor.lhs.false
  %3 = load ptr, ptr %data.addr, align 8
  %len = getelementptr inbounds %struct.uv_buf_t, ptr %3, i32 0, i32 1
  %4 = load i64, ptr %len, align 8
  %cmp3 = icmp eq i64 %4, 0
  br i1 %cmp3, label %if.then, label %if.end

if.then:                                          ; preds = %lor.lhs.false2, %lor.lhs.false, %entry
  store i1 false, ptr %retval, align 1
  br label %return

if.end:                                           ; preds = %lor.lhs.false2
  %set_4 = getelementptr inbounds %"class.node::quic::SessionTicket::AppData", ptr %this1, i32 0, i32 0
  store i8 1, ptr %set_4, align 8
  %ssl_ = getelementptr inbounds %"class.node::quic::SessionTicket::AppData", ptr %this1, i32 0, i32 1
  %5 = load ptr, ptr %ssl_, align 8
  %call = call ptr @SSL_get_session(ptr noundef %5)
  %6 = load ptr, ptr %data.addr, align 8
  %base5 = getelementptr inbounds %struct.uv_buf_t, ptr %6, i32 0, i32 0
  %7 = load ptr, ptr %base5, align 8
  %8 = load ptr, ptr %data.addr, align 8
  %len6 = getelementptr inbounds %struct.uv_buf_t, ptr %8, i32 0, i32 1
  %9 = load i64, ptr %len6, align 8
  %call7 = call i32 @SSL_SESSION_set1_ticket_appdata(ptr noundef %call, ptr noundef %7, i64 noundef %9)
  %set_8 = getelementptr inbounds %"class.node::quic::SessionTicket::AppData", ptr %this1, i32 0, i32 0
  %10 = load i8, ptr %set_8, align 8
  %tobool9 = trunc i8 %10 to i1
  store i1 %tobool9, ptr %retval, align 1
  br label %return

return:                                           ; preds = %if.end, %if.then
  %11 = load i1, ptr %retval, align 1
  ret i1 %11
}