; Function Attrs: mustprogress nounwind uwtable
define dso_local noundef zeroext i1 @_ZN4node4quic13SessionTicket7AppData3SetERK8uv_buf_t(ptr nocapture noundef nonnull align 8 dereferenceable(16) %this, ptr nocapture noundef nonnull readonly align 8 dereferenceable(16) %data) local_unnamed_addr #4 align 2 {
entry:
  %0 = load i8, ptr %this, align 8
  %1 = and i8 %0, 1
  %tobool.not = icmp ne i8 %1, 0
  %2 = load ptr, ptr %data, align 8
  %cmp = icmp eq ptr %2, null
  %or.cond = select i1 %tobool.not, i1 true, i1 %cmp
  br i1 %or.cond, label %return, label %lor.lhs.false2

lor.lhs.false2:                                   ; preds = %entry
  %len = getelementptr inbounds i8, ptr %data, i64 8
  %3 = load i64, ptr %len, align 8
  %cmp3 = icmp eq i64 %3, 0
  br i1 %cmp3, label %return, label %if.end

if.end:                                           ; preds = %lor.lhs.false2
  store i8 1, ptr %this, align 8
  %ssl_ = getelementptr inbounds i8, ptr %this, i64 8
  %4 = load ptr, ptr %ssl_, align 8
  %call = tail call ptr @SSL_get_session(ptr noundef %4) #17
  %5 = load ptr, ptr %data, align 8
  %6 = load i64, ptr %len, align 8
  %call7 = tail call i32 @SSL_SESSION_set1_ticket_appdata(ptr noundef %call, ptr noundef %5, i64 noundef %6) #17
  %7 = load i8, ptr %this, align 8
  %8 = and i8 %7, 1
  %tobool9 = icmp ne i8 %8, 0
  br label %return

return:                                           ; preds = %entry, %lor.lhs.false2, %if.end
  %retval.0 = phi i1 [ %tobool9, %if.end ], [ false, %lor.lhs.false2 ], [ false, %entry ]
  ret i1 %retval.0
}